target datalayout = "e-m:e-p270:32:32-p271:32:32-p272:64:64-i64:64-i128:128-f80:128-n8:16:32:64-S128"
target triple = "x86_64-pc-linux-gnu"

%struct.myobj_ex_data_st = type { ptr, i32, i32 }

@gbl_result = internal global i32 0, align 4
@.str.1 = private unnamed_addr constant [29 x i8] c"../openssl/test/exdatatest.c\00", align 1
@saved_argl = internal global i64 0, align 8
@saved_argp = internal global ptr null, align 8
@saved_idx2 = internal global i32 0, align 4
@saved_idx3 = internal global i32 0, align 4
@.str.13 = private unnamed_addr constant [8 x i8] c"ex_data\00", align 1
@.str.17 = private unnamed_addr constant [5 x i8] c"argl\00", align 1
@.str.18 = private unnamed_addr constant [11 x i8] c"saved_argl\00", align 1
@.str.19 = private unnamed_addr constant [5 x i8] c"argp\00", align 1
@.str.20 = private unnamed_addr constant [11 x i8] c"saved_argp\00", align 1
@.str.21 = private unnamed_addr constant [4 x i8] c"ptr\00", align 1
@.str.23 = private unnamed_addr constant [39 x i8] c"idx == saved_idx2 || idx == saved_idx3\00", align 1
@.str.24 = private unnamed_addr constant [37 x i8] c"CRYPTO_set_ex_data(ad, idx, ex_data)\00", align 1

; Function Attrs: nounwind uwtable
define internal void @exnew2(ptr noundef %0, ptr noundef %1, ptr noundef %2, i32 noundef %3, i64 noundef %4, ptr noundef %5) #0 {
  %7 = alloca ptr, align 8
  %8 = alloca ptr, align 8
  %9 = alloca ptr, align 8
  %10 = alloca i32, align 4
  %11 = alloca i64, align 8
  %12 = alloca ptr, align 8
  %13 = alloca ptr, align 8
  store ptr %0, ptr %7, align 8, !tbaa !17
  store ptr %1, ptr %8, align 8, !tbaa !17
  store ptr %2, ptr %9, align 8, !tbaa !25
  store i32 %3, ptr %10, align 4, !tbaa !11
  store i64 %4, ptr %11, align 8, !tbaa !15
  store ptr %5, ptr %12, align 8, !tbaa !17
  call void @llvm.lifetime.start.p0(i64 8, ptr %13) #3
  %14 = call noalias ptr @CRYPTO_zalloc(i64 noundef 16, ptr noundef @.str.1, i32 noundef 74)
  store ptr %14, ptr %13, align 8, !tbaa !9
  %15 = load i32, ptr %10, align 4, !tbaa !11
  %16 = load i32, ptr @saved_idx2, align 4, !tbaa !11
  %17 = icmp eq i32 %15, %16
  br i1 %17, label %22, label %18

18:                                               ; preds = %6
  %19 = load i32, ptr %10, align 4, !tbaa !11
  %20 = load i32, ptr @saved_idx3, align 4, !tbaa !11
  %21 = icmp eq i32 %19, %20
  br label %22

22:                                               ; preds = %18, %6
  %23 = phi i1 [ true, %6 ], [ %21, %18 ]
  %24 = zext i1 %23 to i32
  %25 = icmp ne i32 %24, 0
  %26 = zext i1 %25 to i32
  %27 = call i32 @test_true(ptr noundef @.str.1, i32 noundef 76, ptr noundef @.str.23, i32 noundef %26)
  %28 = icmp ne i32 %27, 0
  br i1 %28, label %29, label %56

29:                                               ; preds = %22
  %30 = load i64, ptr %11, align 8, !tbaa !15
  %31 = load i64, ptr @saved_argl, align 8, !tbaa !15
  %32 = call i32 @test_long_eq(ptr noundef @.str.1, i32 noundef 77, ptr noundef @.str.17, ptr noundef @.str.18, i64 noundef %30, i64 noundef %31)
  %33 = icmp ne i32 %32, 0
  br i1 %33, label %34, label %56

34:                                               ; preds = %29
  %35 = load ptr, ptr %12, align 8, !tbaa !17
  %36 = load ptr, ptr @saved_argp, align 8, !tbaa !17
  %37 = call i32 @test_ptr_eq(ptr noundef @.str.1, i32 noundef 78, ptr noundef @.str.19, ptr noundef @.str.20, ptr noundef %35, ptr noundef %36)
  %38 = icmp ne i32 %37, 0
  br i1 %38, label %39, label %56

39:                                               ; preds = %34
  %40 = load ptr, ptr %8, align 8, !tbaa !17
  %41 = call i32 @test_ptr_null(ptr noundef @.str.1, i32 noundef 79, ptr noundef @.str.21, ptr noundef %40)
  %42 = icmp ne i32 %41, 0
  br i1 %42, label %43, label %56

43:                                               ; preds = %39
  %44 = load ptr, ptr %13, align 8, !tbaa !9
  %45 = call i32 @test_ptr(ptr noundef @.str.1, i32 noundef 80, ptr noundef @.str.13, ptr noundef %44)
  %46 = icmp ne i32 %45, 0
  br i1 %46, label %47, label %56

47:                                               ; preds = %43
  %48 = load ptr, ptr %9, align 8, !tbaa !25
  %49 = load i32, ptr %10, align 4, !tbaa !11
  %50 = load ptr, ptr %13, align 8, !tbaa !9
  %51 = call i32 @CRYPTO_set_ex_data(ptr noundef %48, i32 noundef %49, ptr noundef %50)
  %52 = icmp ne i32 %51, 0
  %53 = zext i1 %52 to i32
  %54 = call i32 @test_true(ptr noundef @.str.1, i32 noundef 81, ptr noundef @.str.24, i32 noundef %53)
  %55 = icmp ne i32 %54, 0
  br i1 %55, label %58, label %56

56:                                               ; preds = %47, %43, %39, %34, %29, %22
  store i32 0, ptr @gbl_result, align 4, !tbaa !11
  %57 = load ptr, ptr %13, align 8, !tbaa !9
  call void @CRYPTO_free(ptr noundef %57, ptr noundef @.str.1, i32 noundef 83)
  br label %61

58:                                               ; preds = %47
  %59 = load ptr, ptr %13, align 8, !tbaa !9
  %60 = getelementptr inbounds nuw %struct.myobj_ex_data_st, ptr %59, i32 0, i32 1
  store i32 1, ptr %60, align 8, !tbaa !27
  br label %61

61:                                               ; preds = %58, %56
  call void @llvm.lifetime.end.p0(i64 8, ptr %13) #3
  ret void
}