; Function Attrs: nounwind uwtable
define internal void @exnew2(ptr readnone captures(none) %0, ptr noundef %1, ptr noundef %2, i32 noundef %3, i64 noundef %4, ptr noundef %5) #0 {
  %7 = tail call noalias ptr @CRYPTO_zalloc(i64 noundef 16, ptr noundef nonnull @.str.1, i32 noundef 74) #2
  %8 = load i32, ptr @saved_idx2, align 4, !tbaa !8
  %9 = icmp eq i32 %3, %8
  %10 = load i32, ptr @saved_idx3, align 4
  %11 = icmp eq i32 %3, %10
  %12 = select i1 %9, i1 true, i1 %11
  %13 = zext i1 %12 to i32
  %14 = tail call i32 @test_true(ptr noundef nonnull @.str.1, i32 noundef 76, ptr noundef nonnull @.str.23, i32 noundef %13) #2
  %.not = icmp eq i32 %14, 0
  br i1 %.not, label %30, label %15

15:                                               ; preds = %6
  %.b = load i1, ptr @saved_argl, align 8
  %16 = select i1 %.b, i64 21, i64 0
  %17 = tail call i32 @test_long_eq(ptr noundef nonnull @.str.1, i32 noundef 77, ptr noundef nonnull @.str.17, ptr noundef nonnull @.str.18, i64 noundef %4, i64 noundef %16) #2
  %.not10 = icmp eq i32 %17, 0
  br i1 %.not10, label %30, label %18

18:                                               ; preds = %15
  %19 = load ptr, ptr @saved_argp, align 8, !tbaa !4
  %20 = tail call i32 @test_ptr_eq(ptr noundef nonnull @.str.1, i32 noundef 78, ptr noundef nonnull @.str.19, ptr noundef nonnull @.str.20, ptr noundef %5, ptr noundef %19) #2
  %.not11 = icmp eq i32 %20, 0
  br i1 %.not11, label %30, label %21

21:                                               ; preds = %18
  %22 = tail call i32 @test_ptr_null(ptr noundef nonnull @.str.1, i32 noundef 79, ptr noundef nonnull @.str.21, ptr noundef %1) #2
  %.not12 = icmp eq i32 %22, 0
  br i1 %.not12, label %30, label %23

23:                                               ; preds = %21
  %24 = tail call i32 @test_ptr(ptr noundef nonnull @.str.1, i32 noundef 80, ptr noundef nonnull @.str.13, ptr noundef %7) #2
  %.not13 = icmp eq i32 %24, 0
  br i1 %.not13, label %30, label %25

25:                                               ; preds = %23
  %26 = tail call i32 @CRYPTO_set_ex_data(ptr noundef %2, i32 noundef %3, ptr noundef %7) #2
  %27 = icmp ne i32 %26, 0
  %28 = zext i1 %27 to i32
  %29 = tail call i32 @test_true(ptr noundef nonnull @.str.1, i32 noundef 81, ptr noundef nonnull @.str.24, i32 noundef %28) #2
  %.not14 = icmp eq i32 %29, 0
  br i1 %.not14, label %30, label %31

30:                                               ; preds = %25, %23, %21, %18, %15, %6
  store i1 false, ptr @gbl_result, align 4
  tail call void @CRYPTO_free(ptr noundef %7, ptr noundef nonnull @.str.1, i32 noundef 83) #2
  br label %33

31:                                               ; preds = %25
  %32 = getelementptr inbounds nuw i8, ptr %7, i64 8
  store i32 1, ptr %32, align 8, !tbaa !20
  br label %33

33:                                               ; preds = %31, %30
  ret void
}